target datalayout = "e-m:e-p270:32:32-p271:32:32-p272:64:64-i64:64-i128:128-f80:128-n8:16:32:64-S128"
target triple = "x86_64-unknown-linux-gnu"

%struct.SCSISense = type { i8, i8, i8 }
%struct.DeviceClass = type { %struct.ObjectClass, [1 x i64], ptr, ptr, ptr, i8, i8, ptr, ptr, ptr, ptr, ptr }
%struct.ObjectClass = type { ptr, ptr, [4 x ptr], [4 x ptr], ptr, ptr }
%struct.SCSIDiskClass = type { %struct.SCSIDeviceClass, ptr, ptr, ptr, ptr }
%struct.SCSIDeviceClass = type { %struct.DeviceClass, ptr, ptr, ptr, ptr, ptr }
%struct.SCSIDiskState = type { %struct.SCSIDevice, i32, i8, i8, i8, i16, i64, i64, i32, ptr, ptr, ptr, ptr, ptr, ptr, i8, i8, i16 }
%struct.SCSIDevice = type { %struct.DeviceState, ptr, ptr, i32, %struct.BlockConf, %struct.SCSISense, i8, [252 x i8], i32, %union.anon, i32, i32, i32, i32, i64, i64, i64, i32, i32, i32, i8, i8 }
%struct.DeviceState = type { %struct.Object, ptr, ptr, i8, i8, i64, ptr, i32, i8, ptr, %struct.NamedGPIOListHead, %struct.NamedClockListHead, %struct.BusStateHead, i32, i32, i32, %struct.ResettableState, ptr, %struct.MemReentrancyGuard }
%struct.Object = type { ptr, ptr, ptr, i32, ptr }
%struct.NamedGPIOListHead = type { ptr }
%struct.NamedClockListHead = type { ptr }
%struct.BusStateHead = type { ptr }
%struct.ResettableState = type { i32, i8, i8 }
%struct.MemReentrancyGuard = type { i8 }
%struct.BlockConf = type { ptr, i32, i32, i32, i32, i32, i32, i32, i32, i32, i32, i32, i32, i32, i32, i8, i32, i32, i32, i32 }
%union.anon = type { %struct.QTailQLink }
%struct.QTailQLink = type { ptr, ptr }
%struct.SCSIDiskReq = type { %struct.SCSIRequest, i64, i32, i32, i8, i8, %struct.iovec, %struct.QEMUIOVector, %struct.BlockAcctCookie }
%struct.SCSIRequest = type { ptr, ptr, ptr, i32, i32, i32, i16, i16, ptr, i64, %struct.SCSICommand, %struct.NotifierList, [252 x i8], i32, i8, i8, i8, i8, ptr, ptr, %union.anon.0 }
%struct.SCSICommand = type { [16 x i8], i32, i64, i64, i32 }
%struct.NotifierList = type { %struct.anon }
%struct.anon = type { ptr }
%union.anon.0 = type { %struct.QTailQLink }
%struct.iovec = type { ptr, i64 }
%struct.QEMUIOVector = type { ptr, i32, %union.anon.1 }
%union.anon.1 = type { %struct.anon.2 }
%struct.anon.2 = type { i32, %struct.iovec }
%struct.BlockAcctCookie = type { i64, i64, i32 }
%struct.anon.3 = type { [12 x i8], i64 }
%struct.QEMUSGList = type { ptr, i32, i32, i64, ptr, ptr }

@.str.5 = private unnamed_addr constant [28 x i8] c"../qemu/hw/scsi/scsi-disk.c\00", align 1
@.str.26 = private unnamed_addr constant [21 x i8] c"r->req.aiocb == NULL\00", align 1
@__PRETTY_FUNCTION__.scsi_do_read = private unnamed_addr constant [38 x i8] c"void scsi_do_read(SCSIDiskReq *, int)\00", align 1

; Function Attrs: nounwind sspstrong uwtable
define internal void @scsi_init_iovec(ptr noundef %r, i64 noundef %size) #0 {
entry:
  %r.addr = alloca ptr, align 8
  %size.addr = alloca i64, align 8
  %s = alloca ptr, align 8
  %tmp = alloca ptr, align 8
  %__mptr = alloca ptr, align 8
  %tmp1 = alloca ptr, align 8
  %_a5 = alloca i64, align 8
  %_b6 = alloca i64, align 8
  %tmp9 = alloca i64, align 8
  store ptr %r, ptr %r.addr, align 8
  store i64 %size, ptr %size.addr, align 8
  %0 = load ptr, ptr %r.addr, align 8
  %req = getelementptr inbounds %struct.SCSIDiskReq, ptr %0, i32 0, i32 0
  %dev = getelementptr inbounds %struct.SCSIRequest, ptr %req, i32 0, i32 1
  %1 = load ptr, ptr %dev, align 8
  store ptr %1, ptr %__mptr, align 8
  %2 = load ptr, ptr %__mptr, align 8
  %add.ptr = getelementptr i8, ptr %2, i64 0
  store ptr %add.ptr, ptr %tmp1, align 8
  %3 = load ptr, ptr %tmp1, align 8
  store ptr %3, ptr %tmp, align 8
  %4 = load ptr, ptr %tmp, align 8
  store ptr %4, ptr %s, align 8
  %5 = load ptr, ptr %r.addr, align 8
  %iov = getelementptr inbounds %struct.SCSIDiskReq, ptr %5, i32 0, i32 6
  %iov_base = getelementptr inbounds %struct.iovec, ptr %iov, i32 0, i32 0
  %6 = load ptr, ptr %iov_base, align 8
  %tobool = icmp ne ptr %6, null
  br i1 %tobool, label %if.end, label %if.then

if.then:                                          ; preds = %entry
  %7 = load i64, ptr %size.addr, align 8
  %conv = trunc i64 %7 to i32
  %8 = load ptr, ptr %r.addr, align 8
  %buflen = getelementptr inbounds %struct.SCSIDiskReq, ptr %8, i32 0, i32 3
  store i32 %conv, ptr %buflen, align 4
  %9 = load ptr, ptr %s, align 8
  %qdev = getelementptr inbounds %struct.SCSIDiskState, ptr %9, i32 0, i32 0
  %conf = getelementptr inbounds %struct.SCSIDevice, ptr %qdev, i32 0, i32 4
  %blk = getelementptr inbounds %struct.BlockConf, ptr %conf, i32 0, i32 0
  %10 = load ptr, ptr %blk, align 8
  %11 = load ptr, ptr %r.addr, align 8
  %buflen2 = getelementptr inbounds %struct.SCSIDiskReq, ptr %11, i32 0, i32 3
  %12 = load i32, ptr %buflen2, align 4
  %conv3 = zext i32 %12 to i64
  %call = call ptr @blk_blockalign(ptr noundef %10, i64 noundef %conv3)
  %13 = load ptr, ptr %r.addr, align 8
  %iov4 = getelementptr inbounds %struct.SCSIDiskReq, ptr %13, i32 0, i32 6
  %iov_base5 = getelementptr inbounds %struct.iovec, ptr %iov4, i32 0, i32 0
  store ptr %call, ptr %iov_base5, align 8
  br label %if.end

if.end:                                           ; preds = %if.then, %entry
  %14 = load ptr, ptr %r.addr, align 8
  %sector_count = getelementptr inbounds %struct.SCSIDiskReq, ptr %14, i32 0, i32 2
  %15 = load i32, ptr %sector_count, align 8
  %conv6 = zext i32 %15 to i64
  %mul = mul i64 %conv6, 512
  store i64 %mul, ptr %_a5, align 8
  %16 = load ptr, ptr %r.addr, align 8
  %buflen7 = getelementptr inbounds %struct.SCSIDiskReq, ptr %16, i32 0, i32 3
  %17 = load i32, ptr %buflen7, align 4
  %conv8 = zext i32 %17 to i64
  store i64 %conv8, ptr %_b6, align 8
  %18 = load i64, ptr %_a5, align 8
  %19 = load i64, ptr %_b6, align 8
  %cmp = icmp ult i64 %18, %19
  br i1 %cmp, label %cond.true, label %cond.false

cond.true:                                        ; preds = %if.end
  %20 = load i64, ptr %_a5, align 8
  br label %cond.end

cond.false:                                       ; preds = %if.end
  %21 = load i64, ptr %_b6, align 8
  br label %cond.end

cond.end:                                         ; preds = %cond.false, %cond.true
  %cond = phi i64 [ %20, %cond.true ], [ %21, %cond.false ]
  store i64 %cond, ptr %tmp9, align 8
  %22 = load i64, ptr %tmp9, align 8
  %23 = load ptr, ptr %r.addr, align 8
  %iov11 = getelementptr inbounds %struct.SCSIDiskReq, ptr %23, i32 0, i32 6
  %iov_len = getelementptr inbounds %struct.iovec, ptr %iov11, i32 0, i32 1
  store i64 %22, ptr %iov_len, align 8
  %24 = load ptr, ptr %r.addr, align 8
  %qiov = getelementptr inbounds %struct.SCSIDiskReq, ptr %24, i32 0, i32 7
  %25 = load ptr, ptr %r.addr, align 8
  %iov12 = getelementptr inbounds %struct.SCSIDiskReq, ptr %25, i32 0, i32 6
  call void @qemu_iovec_init_external(ptr noundef %qiov, ptr noundef %iov12, i32 noundef 1)
  ret void
}

; Function Attrs: nounwind sspstrong uwtable
define internal zeroext i1 @scsi_disk_req_check_error(ptr noundef %r, i32 noundef %ret, i1 noundef zeroext %acct_failed) #0 {
entry:
  %retval = alloca i1, align 1
  %r.addr = alloca ptr, align 8
  %ret.addr = alloca i32, align 4
  %acct_failed.addr = alloca i8, align 1
  store ptr %r, ptr %r.addr, align 8
  store i32 %ret, ptr %ret.addr, align 4
  %frombool = zext i1 %acct_failed to i8
  store i8 %frombool, ptr %acct_failed.addr, align 1
  %0 = load ptr, ptr %r.addr, align 8
  %req = getelementptr inbounds %struct.SCSIDiskReq, ptr %0, i32 0, i32 0
  %io_canceled = getelementptr inbounds %struct.SCSIRequest, ptr %req, i32 0, i32 15
  %1 = load i8, ptr %io_canceled, align 1
  %tobool = trunc i8 %1 to i1
  br i1 %tobool, label %if.then, label %if.end

if.then:                                          ; preds = %entry
  %2 = load ptr, ptr %r.addr, align 8
  %req1 = getelementptr inbounds %struct.SCSIDiskReq, ptr %2, i32 0, i32 0
  call void @scsi_req_cancel_complete(ptr noundef %req1)
  store i1 true, ptr %retval, align 1
  br label %return

if.end:                                           ; preds = %entry
  %3 = load i32, ptr %ret.addr, align 4
  %cmp = icmp slt i32 %3, 0
  br i1 %cmp, label %if.then2, label %if.end4

if.then2:                                         ; preds = %if.end
  %4 = load ptr, ptr %r.addr, align 8
  %5 = load i32, ptr %ret.addr, align 4
  %6 = load i8, ptr %acct_failed.addr, align 1
  %tobool3 = trunc i8 %6 to i1
  %call = call zeroext i1 @scsi_handle_rw_error(ptr noundef %4, i32 noundef %5, i1 noundef zeroext %tobool3)
  store i1 %call, ptr %retval, align 1
  br label %return

if.end4:                                          ; preds = %if.end
  store i1 false, ptr %retval, align 1
  br label %return

return:                                           ; preds = %if.end4, %if.then2, %if.then
  %7 = load i1, ptr %retval, align 1
  ret i1 %7
}

; Function Attrs: nounwind sspstrong uwtable
define internal void @scsi_do_read(ptr noundef %r, i32 noundef %ret) #0 {
entry:
  %r.addr = alloca ptr, align 8
  %ret.addr = alloca i32, align 4
  %s = alloca ptr, align 8
  %tmp = alloca ptr, align 8
  %__mptr = alloca ptr, align 8
  %tmp1 = alloca ptr, align 8
  %sdc = alloca ptr, align 8
  store ptr %r, ptr %r.addr, align 8
  store i32 %ret, ptr %ret.addr, align 4
  %0 = load ptr, ptr %r.addr, align 8
  %req = getelementptr inbounds %struct.SCSIDiskReq, ptr %0, i32 0, i32 0
  %dev = getelementptr inbounds %struct.SCSIRequest, ptr %req, i32 0, i32 1
  %1 = load ptr, ptr %dev, align 8
  store ptr %1, ptr %__mptr, align 8
  %2 = load ptr, ptr %__mptr, align 8
  %add.ptr = getelementptr i8, ptr %2, i64 0
  store ptr %add.ptr, ptr %tmp1, align 8
  %3 = load ptr, ptr %tmp1, align 8
  store ptr %3, ptr %tmp, align 8
  %4 = load ptr, ptr %tmp, align 8
  store ptr %4, ptr %s, align 8
  %5 = load ptr, ptr %s, align 8
  %call = call ptr @object_get_class(ptr noundef %5)
  store ptr %call, ptr %sdc, align 8
  %6 = load ptr, ptr %r.addr, align 8
  %req2 = getelementptr inbounds %struct.SCSIDiskReq, ptr %6, i32 0, i32 0
  %aiocb = getelementptr inbounds %struct.SCSIRequest, ptr %req2, i32 0, i32 18
  %7 = load ptr, ptr %aiocb, align 8
  %cmp = icmp eq ptr %7, null
  br i1 %cmp, label %if.then, label %if.else

if.then:                                          ; preds = %entry
  br label %if.end

if.else:                                          ; preds = %entry
  call void @__assert_fail(ptr noundef @.str.26, ptr noundef @.str.5, i32 noundef 418, ptr noundef @__PRETTY_FUNCTION__.scsi_do_read) #11
  unreachable

if.end:                                           ; preds = %if.then
  %8 = load ptr, ptr %r.addr, align 8
  %9 = load i32, ptr %ret.addr, align 4
  %call3 = call zeroext i1 @scsi_disk_req_check_error(ptr noundef %8, i32 noundef %9, i1 noundef zeroext false)
  br i1 %call3, label %if.then4, label %if.end5

if.then4:                                         ; preds = %if.end
  br label %done

if.end5:                                          ; preds = %if.end
  %10 = load ptr, ptr %r.addr, align 8
  %req6 = getelementptr inbounds %struct.SCSIDiskReq, ptr %10, i32 0, i32 0
  %call7 = call ptr @scsi_req_ref(ptr noundef %req6)
  %11 = load ptr, ptr %r.addr, align 8
  %req8 = getelementptr inbounds %struct.SCSIDiskReq, ptr %11, i32 0, i32 0
  %sg = getelementptr inbounds %struct.SCSIRequest, ptr %req8, i32 0, i32 19
  %12 = load ptr, ptr %sg, align 8
  %tobool = icmp ne ptr %12, null
  br i1 %tobool, label %if.then9, label %if.else24

if.then9:                                         ; preds = %if.end5
  %13 = load ptr, ptr %s, align 8
  %qdev = getelementptr inbounds %struct.SCSIDiskState, ptr %13, i32 0, i32 0
  %conf = getelementptr inbounds %struct.SCSIDevice, ptr %qdev, i32 0, i32 4
  %blk = getelementptr inbounds %struct.BlockConf, ptr %conf, i32 0, i32 0
  %14 = load ptr, ptr %blk, align 8
  %15 = load ptr, ptr %r.addr, align 8
  %acct = getelementptr inbounds %struct.SCSIDiskReq, ptr %15, i32 0, i32 8
  %16 = load ptr, ptr %r.addr, align 8
  %req10 = getelementptr inbounds %struct.SCSIDiskReq, ptr %16, i32 0, i32 0
  %sg11 = getelementptr inbounds %struct.SCSIRequest, ptr %req10, i32 0, i32 19
  %17 = load ptr, ptr %sg11, align 8
  call void @dma_acct_start(ptr noundef %14, ptr noundef %acct, ptr noundef %17, i32 noundef 1)
  %18 = load ptr, ptr %r.addr, align 8
  %req12 = getelementptr inbounds %struct.SCSIDiskReq, ptr %18, i32 0, i32 0
  %sg13 = getelementptr inbounds %struct.SCSIRequest, ptr %req12, i32 0, i32 19
  %19 = load ptr, ptr %sg13, align 8
  %size = getelementptr inbounds %struct.QEMUSGList, ptr %19, i32 0, i32 3
  %20 = load i64, ptr %size, align 8
  %21 = load ptr, ptr %r.addr, align 8
  %req14 = getelementptr inbounds %struct.SCSIDiskReq, ptr %21, i32 0, i32 0
  %residual = getelementptr inbounds %struct.SCSIRequest, ptr %req14, i32 0, i32 9
  %22 = load i64, ptr %residual, align 8
  %sub = sub i64 %22, %20
  store i64 %sub, ptr %residual, align 8
  %23 = load ptr, ptr %s, align 8
  %qdev15 = getelementptr inbounds %struct.SCSIDiskState, ptr %23, i32 0, i32 0
  %conf16 = getelementptr inbounds %struct.SCSIDevice, ptr %qdev15, i32 0, i32 4
  %blk17 = getelementptr inbounds %struct.BlockConf, ptr %conf16, i32 0, i32 0
  %24 = load ptr, ptr %blk17, align 8
  %call18 = call ptr @blk_get_aio_context(ptr noundef %24)
  %25 = load ptr, ptr %r.addr, align 8
  %req19 = getelementptr inbounds %struct.SCSIDiskReq, ptr %25, i32 0, i32 0
  %sg20 = getelementptr inbounds %struct.SCSIRequest, ptr %req19, i32 0, i32 19
  %26 = load ptr, ptr %sg20, align 8
  %27 = load ptr, ptr %r.addr, align 8
  %sector = getelementptr inbounds %struct.SCSIDiskReq, ptr %27, i32 0, i32 1
  %28 = load i64, ptr %sector, align 8
  %shl = shl i64 %28, 9
  %29 = load ptr, ptr %sdc, align 8
  %dma_readv = getelementptr inbounds %struct.SCSIDiskClass, ptr %29, i32 0, i32 1
  %30 = load ptr, ptr %dma_readv, align 8
  %31 = load ptr, ptr %r.addr, align 8
  %32 = load ptr, ptr %r.addr, align 8
  %call21 = call ptr @dma_blk_io(ptr noundef %call18, ptr noundef %26, i64 noundef %shl, i32 noundef 512, ptr noundef %30, ptr noundef %31, ptr noundef @scsi_dma_complete, ptr noundef %32, i32 noundef 1)
  %33 = load ptr, ptr %r.addr, align 8
  %req22 = getelementptr inbounds %struct.SCSIDiskReq, ptr %33, i32 0, i32 0
  %aiocb23 = getelementptr inbounds %struct.SCSIRequest, ptr %req22, i32 0, i32 18
  store ptr %call21, ptr %aiocb23, align 8
  br label %if.end38

if.else24:                                        ; preds = %if.end5
  %34 = load ptr, ptr %r.addr, align 8
  call void @scsi_init_iovec(ptr noundef %34, i64 noundef 131072)
  %35 = load ptr, ptr %s, align 8
  %qdev25 = getelementptr inbounds %struct.SCSIDiskState, ptr %35, i32 0, i32 0
  %conf26 = getelementptr inbounds %struct.SCSIDevice, ptr %qdev25, i32 0, i32 4
  %blk27 = getelementptr inbounds %struct.BlockConf, ptr %conf26, i32 0, i32 0
  %36 = load ptr, ptr %blk27, align 8
  %call28 = call ptr @blk_get_stats(ptr noundef %36)
  %37 = load ptr, ptr %r.addr, align 8
  %acct29 = getelementptr inbounds %struct.SCSIDiskReq, ptr %37, i32 0, i32 8
  %38 = load ptr, ptr %r.addr, align 8
  %qiov = getelementptr inbounds %struct.SCSIDiskReq, ptr %38, i32 0, i32 7
  %39 = getelementptr inbounds %struct.QEMUIOVector, ptr %qiov, i32 0, i32 2
  %size30 = getelementptr inbounds %struct.anon.3, ptr %39, i32 0, i32 1
  %40 = load i64, ptr %size30, align 8
  call void @block_acct_start(ptr noundef %call28, ptr noundef %acct29, i64 noundef %40, i32 noundef 1)
  %41 = load ptr, ptr %sdc, align 8
  %dma_readv31 = getelementptr inbounds %struct.SCSIDiskClass, ptr %41, i32 0, i32 1
  %42 = load ptr, ptr %dma_readv31, align 8
  %43 = load ptr, ptr %r.addr, align 8
  %sector32 = getelementptr inbounds %struct.SCSIDiskReq, ptr %43, i32 0, i32 1
  %44 = load i64, ptr %sector32, align 8
  %shl33 = shl i64 %44, 9
  %45 = load ptr, ptr %r.addr, align 8
  %qiov34 = getelementptr inbounds %struct.SCSIDiskReq, ptr %45, i32 0, i32 7
  %46 = load ptr, ptr %r.addr, align 8
  %47 = load ptr, ptr %r.addr, align 8
  %call35 = call ptr %42(i64 noundef %shl33, ptr noundef %qiov34, ptr noundef @scsi_read_complete, ptr noundef %46, ptr noundef %47)
  %48 = load ptr, ptr %r.addr, align 8
  %req36 = getelementptr inbounds %struct.SCSIDiskReq, ptr %48, i32 0, i32 0
  %aiocb37 = getelementptr inbounds %struct.SCSIRequest, ptr %req36, i32 0, i32 18
  store ptr %call35, ptr %aiocb37, align 8
  br label %if.end38

if.end38:                                         ; preds = %if.else24, %if.then9
  br label %done

done:                                             ; preds = %if.end38, %if.then4
  %49 = load ptr, ptr %r.addr, align 8
  %req39 = getelementptr inbounds %struct.SCSIDiskReq, ptr %49, i32 0, i32 0
  call void @scsi_req_unref(ptr noundef %req39)
  ret void
}