; Function Attrs: nounwind sspstrong uwtable
define internal fastcc void @scsi_do_read(ptr noundef %r, i32 noundef %ret) unnamed_addr #0 {
entry:
  %dev = getelementptr inbounds nuw i8, ptr %r, i64 8
  %0 = load ptr, ptr %dev, align 8
  %call = tail call ptr @object_get_class(ptr noundef %0) #18
  %aiocb = getelementptr inbounds nuw i8, ptr %r, i64 376
  %1 = load ptr, ptr %aiocb, align 8
  %cmp = icmp eq ptr %1, null
  br i1 %cmp, label %if.end, label %if.else

if.else:                                          ; preds = %entry
  tail call void @__assert_fail(ptr noundef nonnull @.str.26, ptr noundef nonnull @.str.5, i32 noundef 418, ptr noundef nonnull @__PRETTY_FUNCTION__.scsi_do_read) #19
  unreachable

if.end:                                           ; preds = %entry
  %io_canceled.i = getelementptr inbounds nuw i8, ptr %r, i64 369
  %2 = load i8, ptr %io_canceled.i, align 1
  %tobool.i = trunc i8 %2 to i1
  br i1 %tobool.i, label %scsi_disk_req_check_error.exit.thread, label %if.end.i

scsi_disk_req_check_error.exit.thread:            ; preds = %if.end
  tail call void @scsi_req_cancel_complete(ptr noundef nonnull %r) #18
  br label %done

if.end.i:                                         ; preds = %if.end
  %cmp.i = icmp slt i32 %ret, 0
  br i1 %cmp.i, label %scsi_disk_req_check_error.exit, label %if.end5

scsi_disk_req_check_error.exit:                   ; preds = %if.end.i
  %call.i = tail call fastcc zeroext i1 @scsi_handle_rw_error(ptr noundef nonnull %r, i32 noundef %ret, i1 noundef zeroext false)
  br i1 %call.i, label %done, label %if.end5

if.end5:                                          ; preds = %if.end.i, %scsi_disk_req_check_error.exit
  %call7 = tail call ptr @scsi_req_ref(ptr noundef nonnull %r) #18
  %sg = getelementptr inbounds nuw i8, ptr %r, i64 384
  %3 = load ptr, ptr %sg, align 8
  %tobool.not = icmp eq ptr %3, null
  br i1 %tobool.not, label %if.else24, label %if.then9

if.then9:                                         ; preds = %if.end5
  %conf = getelementptr inbounds nuw i8, ptr %0, i64 184
  %4 = load ptr, ptr %conf, align 8
  %acct = getelementptr inbounds nuw i8, ptr %r, i64 488
  tail call void @dma_acct_start(ptr noundef %4, ptr noundef nonnull %acct, ptr noundef nonnull %3, i32 noundef 1) #18
  %5 = load ptr, ptr %sg, align 8
  %size = getelementptr inbounds nuw i8, ptr %5, i64 16
  %6 = load i64, ptr %size, align 8
  %residual = getelementptr inbounds nuw i8, ptr %r, i64 48
  %7 = load i64, ptr %residual, align 8
  %sub = sub i64 %7, %6
  store i64 %sub, ptr %residual, align 8
  %8 = load ptr, ptr %conf, align 8
  %call18 = tail call ptr @blk_get_aio_context(ptr noundef %8) #18
  %9 = load ptr, ptr %sg, align 8
  %sector = getelementptr inbounds nuw i8, ptr %r, i64 408
  %10 = load i64, ptr %sector, align 8
  %shl = shl i64 %10, 9
  %dma_readv = getelementptr inbounds nuw i8, ptr %call, i64 216
  %11 = load ptr, ptr %dma_readv, align 8
  %call21 = tail call ptr @dma_blk_io(ptr noundef %call18, ptr noundef %9, i64 noundef %shl, i32 noundef 512, ptr noundef %11, ptr noundef nonnull %r, ptr noundef nonnull @scsi_dma_complete, ptr noundef nonnull %r, i32 noundef 1) #18
  store ptr %call21, ptr %aiocb, align 8
  br label %done

if.else24:                                        ; preds = %if.end5
  %iov.i = getelementptr inbounds nuw i8, ptr %r, i64 432
  %12 = load ptr, ptr %iov.i, align 8
  %tobool.not.i = icmp eq ptr %12, null
  br i1 %tobool.not.i, label %if.then.i28, label %scsi_init_iovec.exit

if.then.i28:                                      ; preds = %if.else24
  %13 = load ptr, ptr %dev, align 8
  %buflen.i = getelementptr inbounds nuw i8, ptr %r, i64 420
  store i32 131072, ptr %buflen.i, align 4
  %conf.i = getelementptr inbounds nuw i8, ptr %13, i64 184
  %14 = load ptr, ptr %conf.i, align 8
  %call.i29 = tail call ptr @blk_blockalign(ptr noundef %14, i64 noundef 131072) #18
  store ptr %call.i29, ptr %iov.i, align 8
  br label %scsi_init_iovec.exit

scsi_init_iovec.exit:                             ; preds = %if.else24, %if.then.i28
  %sector_count.i = getelementptr inbounds nuw i8, ptr %r, i64 416
  %15 = load i32, ptr %sector_count.i, align 8
  %conv6.i = zext i32 %15 to i64
  %mul.i = shl nuw nsw i64 %conv6.i, 9
  %buflen7.i = getelementptr inbounds nuw i8, ptr %r, i64 420
  %16 = load i32, ptr %buflen7.i, align 4
  %conv8.i = zext i32 %16 to i64
  %cond.i = tail call i64 @llvm.umin.i64(i64 %mul.i, i64 %conv8.i)
  %iov_len.i = getelementptr inbounds nuw i8, ptr %r, i64 440
  store i64 %cond.i, ptr %iov_len.i, align 8
  %qiov.i = getelementptr inbounds nuw i8, ptr %r, i64 448
  tail call void @qemu_iovec_init_external(ptr noundef nonnull %qiov.i, ptr noundef nonnull %iov.i, i32 noundef 1) #18
  %conf26 = getelementptr inbounds nuw i8, ptr %0, i64 184
  %17 = load ptr, ptr %conf26, align 8
  %call28 = tail call ptr @blk_get_stats(ptr noundef %17) #18
  %acct29 = getelementptr inbounds nuw i8, ptr %r, i64 488
  %size30 = getelementptr inbounds nuw i8, ptr %r, i64 480
  %18 = load i64, ptr %size30, align 8
  tail call void @block_acct_start(ptr noundef %call28, ptr noundef nonnull %acct29, i64 noundef %18, i32 noundef 1) #18
  %dma_readv31 = getelementptr inbounds nuw i8, ptr %call, i64 216
  %19 = load ptr, ptr %dma_readv31, align 8
  %sector32 = getelementptr inbounds nuw i8, ptr %r, i64 408
  %20 = load i64, ptr %sector32, align 8
  %shl33 = shl i64 %20, 9
  %call35 = tail call ptr %19(i64 noundef %shl33, ptr noundef nonnull %qiov.i, ptr noundef nonnull @scsi_read_complete, ptr noundef nonnull %r, ptr noundef nonnull %r) #18
  store ptr %call35, ptr %aiocb, align 8
  br label %done

done:                                             ; preds = %scsi_disk_req_check_error.exit.thread, %if.then9, %scsi_init_iovec.exit, %scsi_disk_req_check_error.exit
  tail call void @scsi_req_unref(ptr noundef nonnull %r) #18
  ret void
}